target datalayout = "e-m:e-p270:32:32-p271:32:32-p272:64:64-i64:64-i128:128-f80:128-n8:16:32:64-S128"
target triple = "x86_64-pc-linux-gnu"

%"class.llvm::MCRegisterClass" = type { ptr, ptr, i32, i16, i16, i16, i16, i8, i8, i8 }
%"class.llvm::TargetRegisterClass" = type { ptr, ptr, ptr, %"struct.llvm::LaneBitmask", i8, i8, i8, i8, i8, ptr, ptr }
%"struct.llvm::LaneBitmask" = type { i64 }
%"class.llvm::MCRegister" = type { i32 }
%"class.llvm::TargetRegisterInfo" = type <{ ptr, %"class.llvm::MCRegisterInfo", ptr, ptr, ptr, ptr, ptr, ptr, %"struct.llvm::LaneBitmask", ptr, ptr, i32, [4 x i8] }>
%"class.llvm::MCRegisterInfo" = type { ptr, i32, %"class.llvm::MCRegister", %"class.llvm::MCRegister", ptr, i32, i32, ptr, ptr, ptr, ptr, ptr, ptr, i32, ptr, i32, i32, i32, i32, ptr, ptr, ptr, ptr, %"class.llvm::DenseMap", %"class.llvm::DenseMap", %"class.std::vector" }
%"class.llvm::DenseMap" = type <{ ptr, i32, i32, i32, [4 x i8] }>
%"class.std::vector" = type { %"struct.std::_Vector_base" }
%"struct.std::_Vector_base" = type { %"struct.std::_Vector_base<std::vector<unsigned short>, std::allocator<std::vector<unsigned short>>>::_Vector_impl" }
%"struct.std::_Vector_base<std::vector<unsigned short>, std::allocator<std::vector<unsigned short>>>::_Vector_impl" = type { %"struct.std::_Vector_base<std::vector<unsigned short>, std::allocator<std::vector<unsigned short>>>::_Vector_impl_data" }
%"struct.std::_Vector_base<std::vector<unsigned short>, std::allocator<std::vector<unsigned short>>>::_Vector_impl_data" = type { ptr, ptr, ptr }

; Function Attrs: mustprogress nounwind uwtable
define linkonce_odr hidden noundef i32 @_ZNK4llvm15MCRegisterClass5getIDEv(ptr noundef nonnull align 8 dereferenceable(32) %0) #0 comdat align 2 {
  %2 = alloca ptr, align 8
  store ptr %0, ptr %2, align 8
  %3 = load ptr, ptr %2, align 8
  %4 = getelementptr inbounds nuw %"class.llvm::MCRegisterClass", ptr %3, i32 0, i32 5
  %5 = load i16, ptr %4, align 8
  %6 = zext i16 %5 to i32
  ret i32 %6
}

; Function Attrs: mustprogress nounwind uwtable
define linkonce_odr hidden noundef ptr @_ZNK4llvm18TargetRegisterInfo11getRegClassEj(ptr noundef nonnull align 8 dereferenceable(308) %0, i32 noundef %1) #0 comdat align 2 {
  %3 = alloca ptr, align 8
  %4 = alloca i32, align 4
  store ptr %0, ptr %3, align 8
  store i32 %1, ptr %4, align 4
  %5 = load ptr, ptr %3, align 8
  %6 = getelementptr inbounds nuw %"class.llvm::TargetRegisterInfo", ptr %5, i32 0, i32 6
  %7 = load ptr, ptr %6, align 8
  %8 = load i32, ptr %4, align 4
  %9 = zext i32 %8 to i64
  %10 = getelementptr inbounds ptr, ptr %7, i64 %9
  %11 = load ptr, ptr %10, align 8
  ret ptr %11
}

; Function Attrs: mustprogress nounwind uwtable
define linkonce_odr hidden noundef i32 @_ZNK4llvm19TargetRegisterClass5getIDEv(ptr noundef nonnull align 8 dereferenceable(56) %0) #0 comdat align 2 {
  %2 = alloca ptr, align 8
  store ptr %0, ptr %2, align 8
  %3 = load ptr, ptr %2, align 8
  %4 = getelementptr inbounds nuw %"class.llvm::TargetRegisterClass", ptr %3, i32 0, i32 0
  %5 = load ptr, ptr %4, align 8
  %6 = call noundef i32 @_ZNK4llvm15MCRegisterClass5getIDEv(ptr noundef nonnull align 8 dereferenceable(32) %5)
  ret i32 %6
}

; Function Attrs: mustprogress nounwind uwtable
define dso_local noundef ptr @_ZNK4llvm22AArch64GenRegisterInfo21getSubClassWithSubRegEPKNS_19TargetRegisterClassEj(ptr noundef nonnull align 8 dereferenceable(308) %0, ptr noundef %1, i32 noundef %2) unnamed_addr #0 align 2 {
  %4 = alloca ptr, align 8
  %5 = alloca ptr, align 8
  %6 = alloca ptr, align 8
  %7 = alloca i32, align 4
  %8 = alloca i32, align 4
  store ptr %0, ptr %5, align 8
  store ptr %1, ptr %6, align 8
  store i32 %2, ptr %7, align 4
  %9 = load ptr, ptr %5, align 8
  %10 = load i32, ptr %7, align 4
  %11 = icmp ne i32 %10, 0
  br i1 %11, label %14, label %12

12:                                               ; preds = %3
  %13 = load ptr, ptr %6, align 8
  store ptr %13, ptr %4, align 8
  br label %35

14:                                               ; preds = %3
  %15 = load i32, ptr %7, align 4
  %16 = add i32 %15, -1
  store i32 %16, ptr %7, align 4
  %17 = load ptr, ptr %6, align 8
  %18 = call noundef i32 @_ZNK4llvm19TargetRegisterClass5getIDEv(ptr noundef nonnull align 8 dereferenceable(56) %17)
  %19 = zext i32 %18 to i64
  %20 = getelementptr inbounds [305 x [153 x i16]], ptr @_ZZNK4llvm22AArch64GenRegisterInfo21getSubClassWithSubRegEPKNS_19TargetRegisterClassEjE5Table, i64 0, i64 %19
  %21 = load i32, ptr %7, align 4
  %22 = zext i32 %21 to i64
  %23 = getelementptr inbounds [153 x i16], ptr %20, i64 0, i64 %22
  %24 = load i16, ptr %23, align 2
  %25 = zext i16 %24 to i32
  store i32 %25, ptr %8, align 4
  %26 = load i32, ptr %8, align 4
  %27 = icmp ne i32 %26, 0
  br i1 %27, label %28, label %32

28:                                               ; preds = %14
  %29 = load i32, ptr %8, align 4
  %30 = sub i32 %29, 1
  %31 = call noundef ptr @_ZNK4llvm18TargetRegisterInfo11getRegClassEj(ptr noundef nonnull align 8 dereferenceable(308) %9, i32 noundef %30)
  br label %33

32:                                               ; preds = %14
  br label %33

33:                                               ; preds = %32, %28
  %34 = phi ptr [ %31, %28 ], [ null, %32 ]
  store ptr %34, ptr %4, align 8
  br label %35

35:                                               ; preds = %33, %12
  %36 = load ptr, ptr %4, align 8
  ret ptr %36
}

; Function Attrs: mustprogress nounwind uwtable
define dso_local noundef ptr @_ZNK4llvm19AArch64RegisterInfo21getSubClassWithSubRegEPKNS_19TargetRegisterClassEj(ptr noundef nonnull align 8 dereferenceable(320) %0, ptr noundef %1, i32 noundef %2) unnamed_addr #0 align 2 {
  %4 = alloca ptr, align 8
  %5 = alloca ptr, align 8
  %6 = alloca ptr, align 8
  %7 = alloca i32, align 4
  store ptr %0, ptr %5, align 8
  store ptr %1, ptr %6, align 8
  store i32 %2, ptr %7, align 4
  %8 = load ptr, ptr %5, align 8
  %9 = load ptr, ptr %6, align 8
  %10 = icmp eq ptr %9, @_ZN4llvm7AArch6416GPR32allRegClassE
  br i1 %10, label %11, label %15

11:                                               ; preds = %3
  %12 = load i32, ptr %7, align 4
  %13 = icmp eq i32 %12, 7
  br i1 %13, label %14, label %15

14:                                               ; preds = %11
  store ptr @_ZN4llvm7AArch6413FPR32RegClassE, ptr %4, align 8
  br label %27

15:                                               ; preds = %11, %3
  %16 = load ptr, ptr %6, align 8
  %17 = icmp eq ptr %16, @_ZN4llvm7AArch6416GPR64allRegClassE
  br i1 %17, label %18, label %22

18:                                               ; preds = %15
  %19 = load i32, ptr %7, align 4
  %20 = icmp eq i32 %19, 7
  br i1 %20, label %21, label %22

21:                                               ; preds = %18
  store ptr @_ZN4llvm7AArch6413FPR64RegClassE, ptr %4, align 8
  br label %27

22:                                               ; preds = %18, %15
  br label %23

23:                                               ; preds = %22
  %24 = load ptr, ptr %6, align 8
  %25 = load i32, ptr %7, align 4
  %26 = call noundef ptr @_ZNK4llvm22AArch64GenRegisterInfo21getSubClassWithSubRegEPKNS_19TargetRegisterClassEj(ptr noundef nonnull align 8 dereferenceable(308) %8, ptr noundef %24, i32 noundef %25)
  store ptr %26, ptr %4, align 8
  br label %27

27:                                               ; preds = %23, %21, %14
  %28 = load ptr, ptr %4, align 8
  ret ptr %28
}