; Function Attrs: mustprogress nofree norecurse nosync nounwind willreturn memory(read, inaccessiblemem: none) uwtable
define dso_local noundef ptr @_ZNK4llvm19AArch64RegisterInfo21getSubClassWithSubRegEPKNS_19TargetRegisterClassEj(ptr nocapture noundef nonnull readonly align 8 dereferenceable(320) %0, ptr noundef readonly %1, i32 noundef %2) unnamed_addr #1 align 2 {
  %4 = icmp eq ptr %1, @_ZN4llvm7AArch6416GPR32allRegClassE
  %5 = icmp eq i32 %2, 7
  %or.cond = and i1 %4, %5
  br i1 %or.cond, label %_ZNK4llvm22AArch64GenRegisterInfo21getSubClassWithSubRegEPKNS_19TargetRegisterClassEj.exit, label %6

6:                                                ; preds = %3
  %7 = icmp eq ptr %1, @_ZN4llvm7AArch6416GPR64allRegClassE
  %or.cond3 = and i1 %7, %5
  br i1 %or.cond3, label %_ZNK4llvm22AArch64GenRegisterInfo21getSubClassWithSubRegEPKNS_19TargetRegisterClassEj.exit, label %8

8:                                                ; preds = %6
  %.not.i = icmp eq i32 %2, 0
  br i1 %.not.i, label %_ZNK4llvm22AArch64GenRegisterInfo21getSubClassWithSubRegEPKNS_19TargetRegisterClassEj.exit, label %9

9:                                                ; preds = %8
  %10 = add i32 %2, -1
  %11 = load ptr, ptr %1, align 8
  %12 = getelementptr inbounds nuw i8, ptr %11, i64 24
  %13 = load i16, ptr %12, align 8
  %14 = zext i16 %13 to i64
  %15 = zext i32 %10 to i64
  %16 = getelementptr inbounds [305 x [153 x i16]], ptr @_ZZNK4llvm22AArch64GenRegisterInfo21getSubClassWithSubRegEPKNS_19TargetRegisterClassEjE5Table, i64 0, i64 %14, i64 %15
  %17 = load i16, ptr %16, align 2
  %.not10.i = icmp eq i16 %17, 0
  br i1 %.not10.i, label %_ZNK4llvm22AArch64GenRegisterInfo21getSubClassWithSubRegEPKNS_19TargetRegisterClassEj.exit, label %18

18:                                               ; preds = %9
  %19 = zext i16 %17 to i64
  %20 = add nuw nsw i64 %19, 4294967295
  %21 = getelementptr inbounds nuw i8, ptr %0, i64 264
  %22 = load ptr, ptr %21, align 8
  %23 = and i64 %20, 4294967295
  %24 = getelementptr inbounds ptr, ptr %22, i64 %23
  %25 = load ptr, ptr %24, align 8
  br label %_ZNK4llvm22AArch64GenRegisterInfo21getSubClassWithSubRegEPKNS_19TargetRegisterClassEj.exit

_ZNK4llvm22AArch64GenRegisterInfo21getSubClassWithSubRegEPKNS_19TargetRegisterClassEj.exit: ; preds = %18, %9, %8, %6, %3
  %.0 = phi ptr [ @_ZN4llvm7AArch6413FPR32RegClassE, %3 ], [ @_ZN4llvm7AArch6413FPR64RegClassE, %6 ], [ %1, %8 ], [ %25, %18 ], [ null, %9 ]
  ret ptr %.0
}